target datalayout = "e-m:e-p270:32:32-p271:32:32-p272:64:64-i64:64-i128:128-f80:128-n8:16:32:64-S128"
target triple = "x86_64-unknown-linux-gnu"

%struct.ResourceData = type { ptr, ptr, ptr, ptr, i32, i32, ptr, i32, i32, i8, i8, i8, i8 }

; Function Attrs: mustprogress uwtable
define void @res_unload_75(ptr noundef %pResData) #0 {
entry:
  %pResData.addr = alloca ptr, align 8
  store ptr %pResData, ptr %pResData.addr, align 8
  %0 = load ptr, ptr %pResData.addr, align 8
  %data = getelementptr inbounds %struct.ResourceData, ptr %0, i32 0, i32 0
  %1 = load ptr, ptr %data, align 8
  %cmp = icmp ne ptr %1, null
  br i1 %cmp, label %if.then, label %if.end

if.then:                                          ; preds = %entry
  %2 = load ptr, ptr %pResData.addr, align 8
  %data1 = getelementptr inbounds %struct.ResourceData, ptr %2, i32 0, i32 0
  %3 = load ptr, ptr %data1, align 8
  call void @udata_close_75(ptr noundef %3)
  %4 = load ptr, ptr %pResData.addr, align 8
  %data2 = getelementptr inbounds %struct.ResourceData, ptr %4, i32 0, i32 0
  store ptr null, ptr %data2, align 8
  br label %if.end

if.end:                                           ; preds = %if.then, %entry
  ret void
}