; Function Attrs: mustprogress uwtable
define void @res_unload_75(ptr nocapture noundef %pResData) local_unnamed_addr #0 {
entry:
  %0 = load ptr, ptr %pResData, align 8
  %cmp.not = icmp eq ptr %0, null
  br i1 %cmp.not, label %if.end, label %if.then

if.then:                                          ; preds = %entry
  tail call void @udata_close_75(ptr noundef nonnull %0)
  store ptr null, ptr %pResData, align 8
  br label %if.end

if.end:                                           ; preds = %if.then, %entry
  ret void
}